target datalayout = "e-m:e-p270:32:32-p271:32:32-p272:64:64-i64:64-i128:128-f80:128-n8:16:32:64-S128"
target triple = "x86_64-pc-linux-gnu"

%struct.nghttp2_huff_sym = type { i32, i32 }
%struct.nghttp2_bufs = type { ptr, ptr, ptr, i64, i64, i64, i64, i64 }
%struct.nghttp2_buf_chain = type { ptr, %struct.nghttp2_buf }
%struct.nghttp2_buf = type { ptr, ptr, ptr, ptr, ptr }

@huff_sym_table = external constant [0 x %struct.nghttp2_huff_sym], align 4

; Function Attrs: inlinehint nounwind uwtable
define internal i32 @__bswap_32(i32 noundef %0) #2 {
  %2 = alloca i32, align 4
  store i32 %0, ptr %2, align 4, !tbaa !26
  %3 = load i32, ptr %2, align 4, !tbaa !26
  %4 = and i32 %3, -16777216
  %5 = lshr i32 %4, 24
  %6 = load i32, ptr %2, align 4, !tbaa !26
  %7 = and i32 %6, 16711680
  %8 = lshr i32 %7, 8
  %9 = or i32 %5, %8
  %10 = load i32, ptr %2, align 4, !tbaa !26
  %11 = and i32 %10, 65280
  %12 = shl i32 %11, 8
  %13 = or i32 %9, %12
  %14 = load i32, ptr %2, align 4, !tbaa !26
  %15 = and i32 %14, 255
  %16 = shl i32 %15, 24
  %17 = or i32 %13, %16
  ret i32 %17
}

; Function Attrs: nounwind uwtable
define hidden i32 @nghttp2_hd_huff_encode(ptr noundef %0, ptr noundef %1, i64 noundef %2) #0 {
  %4 = alloca i32, align 4
  %5 = alloca ptr, align 8
  %6 = alloca ptr, align 8
  %7 = alloca i64, align 8
  %8 = alloca ptr, align 8
  %9 = alloca ptr, align 8
  %10 = alloca i64, align 8
  %11 = alloca i32, align 4
  %12 = alloca i64, align 8
  %13 = alloca i64, align 8
  %14 = alloca i32, align 4
  %15 = alloca i32, align 4
  store ptr %0, ptr %5, align 8, !tbaa !16
  store ptr %1, ptr %6, align 8, !tbaa !3
  store i64 %2, ptr %7, align 8, !tbaa !8
  call void @llvm.lifetime.start.p0(i64 8, ptr %8) #6
  call void @llvm.lifetime.start.p0(i64 8, ptr %9) #6
  %16 = load ptr, ptr %6, align 8, !tbaa !3
  %17 = load i64, ptr %7, align 8, !tbaa !8
  %18 = getelementptr inbounds nuw i8, ptr %16, i64 %17
  store ptr %18, ptr %9, align 8, !tbaa !3
  call void @llvm.lifetime.start.p0(i64 8, ptr %10) #6
  store i64 0, ptr %10, align 8, !tbaa !8
  call void @llvm.lifetime.start.p0(i64 4, ptr %11) #6
  call void @llvm.lifetime.start.p0(i64 8, ptr %12) #6
  store i64 0, ptr %12, align 8, !tbaa !8
  call void @llvm.lifetime.start.p0(i64 8, ptr %13) #6
  call void @llvm.lifetime.start.p0(i64 4, ptr %14) #6
  %19 = load ptr, ptr %5, align 8, !tbaa !16
  %20 = getelementptr inbounds nuw %struct.nghttp2_bufs, ptr %19, i32 0, i32 1
  %21 = load ptr, ptr %20, align 8, !tbaa !17
  %22 = getelementptr inbounds nuw %struct.nghttp2_buf_chain, ptr %21, i32 0, i32 1
  %23 = getelementptr inbounds nuw %struct.nghttp2_buf, ptr %22, i32 0, i32 1
  %24 = load ptr, ptr %23, align 8, !tbaa !20
  %25 = load ptr, ptr %5, align 8, !tbaa !16
  %26 = getelementptr inbounds nuw %struct.nghttp2_bufs, ptr %25, i32 0, i32 1
  %27 = load ptr, ptr %26, align 8, !tbaa !17
  %28 = getelementptr inbounds nuw %struct.nghttp2_buf_chain, ptr %27, i32 0, i32 1
  %29 = getelementptr inbounds nuw %struct.nghttp2_buf, ptr %28, i32 0, i32 3
  %30 = load ptr, ptr %29, align 8, !tbaa !23
  %31 = ptrtoint ptr %24 to i64
  %32 = ptrtoint ptr %30 to i64
  %33 = sub i64 %31, %32
  store i64 %33, ptr %13, align 8, !tbaa !8
  br label %34

34:                                               ; preds = %108, %65, %61, %3
  %35 = load ptr, ptr %6, align 8, !tbaa !3
  %36 = load ptr, ptr %9, align 8, !tbaa !3
  %37 = icmp ne ptr %35, %36
  br i1 %37, label %38, label %124

38:                                               ; preds = %34
  %39 = load ptr, ptr %6, align 8, !tbaa !3
  %40 = getelementptr inbounds nuw i8, ptr %39, i32 1
  store ptr %40, ptr %6, align 8, !tbaa !3
  %41 = load i8, ptr %39, align 1, !tbaa !10
  %42 = zext i8 %41 to i64
  %43 = getelementptr inbounds nuw [0 x %struct.nghttp2_huff_sym], ptr @huff_sym_table, i64 0, i64 %42
  store ptr %43, ptr %8, align 8, !tbaa !16
  %44 = load ptr, ptr %8, align 8, !tbaa !16
  %45 = getelementptr inbounds nuw %struct.nghttp2_huff_sym, ptr %44, i32 0, i32 1
  %46 = load i32, ptr %45, align 4, !tbaa !24
  %47 = zext i32 %46 to i64
  %48 = load i64, ptr %12, align 8, !tbaa !8
  %49 = sub i64 32, %48
  %50 = shl i64 %47, %49
  %51 = load i64, ptr %10, align 8, !tbaa !8
  %52 = or i64 %51, %50
  store i64 %52, ptr %10, align 8, !tbaa !8
  %53 = load ptr, ptr %8, align 8, !tbaa !16
  %54 = getelementptr inbounds nuw %struct.nghttp2_huff_sym, ptr %53, i32 0, i32 0
  %55 = load i32, ptr %54, align 4, !tbaa !11
  %56 = zext i32 %55 to i64
  %57 = load i64, ptr %12, align 8, !tbaa !8
  %58 = add i64 %57, %56
  store i64 %58, ptr %12, align 8, !tbaa !8
  %59 = load i64, ptr %12, align 8, !tbaa !8
  %60 = icmp ult i64 %59, 32
  br i1 %60, label %61, label %62

61:                                               ; preds = %38
  br label %34, !llvm.loop !25

62:                                               ; preds = %38
  %63 = load i64, ptr %13, align 8, !tbaa !8
  %64 = icmp uge i64 %63, 4
  br i1 %64, label %65, label %89

65:                                               ; preds = %62
  %66 = load i64, ptr %10, align 8, !tbaa !8
  %67 = lshr i64 %66, 32
  %68 = trunc i64 %67 to i32
  %69 = call i32 @__bswap_32(i32 noundef %68)
  store i32 %69, ptr %11, align 4, !tbaa !26
  %70 = load ptr, ptr %5, align 8, !tbaa !16
  %71 = getelementptr inbounds nuw %struct.nghttp2_bufs, ptr %70, i32 0, i32 1
  %72 = load ptr, ptr %71, align 8, !tbaa !17
  %73 = getelementptr inbounds nuw %struct.nghttp2_buf_chain, ptr %72, i32 0, i32 1
  %74 = getelementptr inbounds nuw %struct.nghttp2_buf, ptr %73, i32 0, i32 3
  %75 = load ptr, ptr %74, align 8, !tbaa !23
  call void @llvm.memcpy.p0.p0.i64(ptr align 1 %75, ptr align 4 %11, i64 4, i1 false)
  %76 = load ptr, ptr %5, align 8, !tbaa !16
  %77 = getelementptr inbounds nuw %struct.nghttp2_bufs, ptr %76, i32 0, i32 1
  %78 = load ptr, ptr %77, align 8, !tbaa !17
  %79 = getelementptr inbounds nuw %struct.nghttp2_buf_chain, ptr %78, i32 0, i32 1
  %80 = getelementptr inbounds nuw %struct.nghttp2_buf, ptr %79, i32 0, i32 3
  %81 = load ptr, ptr %80, align 8, !tbaa !23
  %82 = getelementptr inbounds i8, ptr %81, i64 4
  store ptr %82, ptr %80, align 8, !tbaa !23
  %83 = load i64, ptr %13, align 8, !tbaa !8
  %84 = sub i64 %83, 4
  store i64 %84, ptr %13, align 8, !tbaa !8
  %85 = load i64, ptr %10, align 8, !tbaa !8
  %86 = shl i64 %85, 32
  store i64 %86, ptr %10, align 8, !tbaa !8
  %87 = load i64, ptr %12, align 8, !tbaa !8
  %88 = sub i64 %87, 32
  store i64 %88, ptr %12, align 8, !tbaa !8
  br label %34, !llvm.loop !25

89:                                               ; preds = %62
  br label %90

90:                                               ; preds = %103, %89
  %91 = load i64, ptr %12, align 8, !tbaa !8
  %92 = icmp uge i64 %91, 8
  br i1 %92, label %93, label %108

93:                                               ; preds = %90
  %94 = load ptr, ptr %5, align 8, !tbaa !16
  %95 = load i64, ptr %10, align 8, !tbaa !8
  %96 = lshr i64 %95, 56
  %97 = trunc i64 %96 to i8
  %98 = call i32 @nghttp2_bufs_addb(ptr noundef %94, i8 noundef zeroext %97)
  store i32 %98, ptr %14, align 4, !tbaa !26
  %99 = load i32, ptr %14, align 4, !tbaa !26
  %100 = icmp ne i32 %99, 0
  br i1 %100, label %101, label %103

101:                                              ; preds = %93
  %102 = load i32, ptr %14, align 4, !tbaa !26
  store i32 %102, ptr %4, align 4
  store i32 1, ptr %15, align 4
  br label %166

103:                                              ; preds = %93
  %104 = load i64, ptr %10, align 8, !tbaa !8
  %105 = shl i64 %104, 8
  store i64 %105, ptr %10, align 8, !tbaa !8
  %106 = load i64, ptr %12, align 8, !tbaa !8
  %107 = sub i64 %106, 8
  store i64 %107, ptr %12, align 8, !tbaa !8
  br label %90, !llvm.loop !27

108:                                              ; preds = %90
  %109 = load ptr, ptr %5, align 8, !tbaa !16
  %110 = getelementptr inbounds nuw %struct.nghttp2_bufs, ptr %109, i32 0, i32 1
  %111 = load ptr, ptr %110, align 8, !tbaa !17
  %112 = getelementptr inbounds nuw %struct.nghttp2_buf_chain, ptr %111, i32 0, i32 1
  %113 = getelementptr inbounds nuw %struct.nghttp2_buf, ptr %112, i32 0, i32 1
  %114 = load ptr, ptr %113, align 8, !tbaa !20
  %115 = load ptr, ptr %5, align 8, !tbaa !16
  %116 = getelementptr inbounds nuw %struct.nghttp2_bufs, ptr %115, i32 0, i32 1
  %117 = load ptr, ptr %116, align 8, !tbaa !17
  %118 = getelementptr inbounds nuw %struct.nghttp2_buf_chain, ptr %117, i32 0, i32 1
  %119 = getelementptr inbounds nuw %struct.nghttp2_buf, ptr %118, i32 0, i32 3
  %120 = load ptr, ptr %119, align 8, !tbaa !23
  %121 = ptrtoint ptr %114 to i64
  %122 = ptrtoint ptr %120 to i64
  %123 = sub i64 %121, %122
  store i64 %123, ptr %13, align 8, !tbaa !8
  br label %34, !llvm.loop !25

124:                                              ; preds = %34
  br label %125

125:                                              ; preds = %138, %124
  %126 = load i64, ptr %12, align 8, !tbaa !8
  %127 = icmp uge i64 %126, 8
  br i1 %127, label %128, label %143

128:                                              ; preds = %125
  %129 = load ptr, ptr %5, align 8, !tbaa !16
  %130 = load i64, ptr %10, align 8, !tbaa !8
  %131 = lshr i64 %130, 56
  %132 = trunc i64 %131 to i8
  %133 = call i32 @nghttp2_bufs_addb(ptr noundef %129, i8 noundef zeroext %132)
  store i32 %133, ptr %14, align 4, !tbaa !26
  %134 = load i32, ptr %14, align 4, !tbaa !26
  %135 = icmp ne i32 %134, 0
  br i1 %135, label %136, label %138

136:                                              ; preds = %128
  %137 = load i32, ptr %14, align 4, !tbaa !26
  store i32 %137, ptr %4, align 4
  store i32 1, ptr %15, align 4
  br label %166

138:                                              ; preds = %128
  %139 = load i64, ptr %10, align 8, !tbaa !8
  %140 = shl i64 %139, 8
  store i64 %140, ptr %10, align 8, !tbaa !8
  %141 = load i64, ptr %12, align 8, !tbaa !8
  %142 = sub i64 %141, 8
  store i64 %142, ptr %12, align 8, !tbaa !8
  br label %125, !llvm.loop !28

143:                                              ; preds = %125
  %144 = load i64, ptr %12, align 8, !tbaa !8
  %145 = icmp ne i64 %144, 0
  br i1 %145, label %146, label %165

146:                                              ; preds = %143
  %147 = load ptr, ptr %5, align 8, !tbaa !16
  %148 = load i64, ptr %10, align 8, !tbaa !8
  %149 = lshr i64 %148, 56
  %150 = trunc i64 %149 to i8
  %151 = zext i8 %150 to i32
  %152 = load i64, ptr %12, align 8, !tbaa !8
  %153 = sub i64 8, %152
  %154 = trunc i64 %153 to i32
  %155 = shl i32 1, %154
  %156 = sub nsw i32 %155, 1
  %157 = or i32 %151, %156
  %158 = trunc i32 %157 to i8
  %159 = call i32 @nghttp2_bufs_addb(ptr noundef %147, i8 noundef zeroext %158)
  store i32 %159, ptr %14, align 4, !tbaa !26
  %160 = load i32, ptr %14, align 4, !tbaa !26
  %161 = icmp ne i32 %160, 0
  br i1 %161, label %162, label %164

162:                                              ; preds = %146
  %163 = load i32, ptr %14, align 4, !tbaa !26
  store i32 %163, ptr %4, align 4
  store i32 1, ptr %15, align 4
  br label %166

164:                                              ; preds = %146
  br label %165

165:                                              ; preds = %164, %143
  store i32 0, ptr %4, align 4
  store i32 1, ptr %15, align 4
  br label %166

166:                                              ; preds = %165, %162, %136, %101
  call void @llvm.lifetime.end.p0(i64 4, ptr %14) #6
  call void @llvm.lifetime.end.p0(i64 8, ptr %13) #6
  call void @llvm.lifetime.end.p0(i64 8, ptr %12) #6
  call void @llvm.lifetime.end.p0(i64 4, ptr %11) #6
  call void @llvm.lifetime.end.p0(i64 8, ptr %10) #6
  call void @llvm.lifetime.end.p0(i64 8, ptr %9) #6
  call void @llvm.lifetime.end.p0(i64 8, ptr %8) #6
  %167 = load i32, ptr %4, align 4
  ret i32 %167
}