; Function Attrs: nounwind uwtable
define hidden i32 @nghttp2_hd_huff_encode(ptr noundef %0, ptr noundef readonly %1, i64 noundef %2) local_unnamed_addr #1 {
  %4 = getelementptr inbounds nuw i8, ptr %1, i64 %2
  %5 = getelementptr inbounds nuw i8, ptr %0, i64 8
  %6 = load ptr, ptr %5, align 8, !tbaa !11
  %7 = getelementptr inbounds nuw i8, ptr %6, i64 16
  %8 = load ptr, ptr %7, align 8, !tbaa !16
  %9 = getelementptr inbounds nuw i8, ptr %6, i64 32
  %10 = load ptr, ptr %9, align 8, !tbaa !20
  %11 = ptrtoint ptr %8 to i64
  %12 = ptrtoint ptr %10 to i64
  %13 = sub i64 %11, %12
  br label %.outer

.outer:                                           ; preds = %.outer.backedge, %3
  %14 = phi ptr [ %6, %3 ], [ %.be, %.outer.backedge ]
  %.047.ph = phi ptr [ %1, %3 ], [ %18, %.outer.backedge ]
  %.044.ph = phi i64 [ 0, %3 ], [ %.044.ph.be, %.outer.backedge ]
  %.042.ph = phi i64 [ 0, %3 ], [ %.042.ph.be, %.outer.backedge ]
  %.0.ph = phi i64 [ %13, %3 ], [ %.0.ph.be, %.outer.backedge ]
  br label %15

15:                                               ; preds = %.outer, %17
  %.047 = phi ptr [ %18, %17 ], [ %.047.ph, %.outer ]
  %.044 = phi i64 [ %27, %17 ], [ %.044.ph, %.outer ]
  %.042 = phi i64 [ %30, %17 ], [ %.042.ph, %.outer ]
  %.not = icmp eq ptr %.047, %4
  br i1 %.not, label %.preheader, label %17

.preheader:                                       ; preds = %15
  %16 = icmp ugt i64 %.042, 7
  br i1 %16, label %.lr.ph74, label %._crit_edge75

17:                                               ; preds = %15
  %18 = getelementptr inbounds nuw i8, ptr %.047, i64 1
  %19 = load i8, ptr %.047, align 1, !tbaa !3
  %20 = zext i8 %19 to i64
  %21 = getelementptr inbounds nuw [0 x %struct.nghttp2_huff_sym], ptr @huff_sym_table, i64 0, i64 %20
  %22 = getelementptr inbounds nuw i8, ptr %21, i64 4
  %23 = load i32, ptr %22, align 4, !tbaa !21
  %24 = zext i32 %23 to i64
  %25 = sub i64 32, %.042
  %26 = shl i64 %24, %25
  %27 = or i64 %26, %.044
  %28 = load i32, ptr %21, align 4, !tbaa !6
  %29 = zext i32 %28 to i64
  %30 = add i64 %.042, %29
  %31 = icmp ult i64 %30, 32
  br i1 %31, label %15, label %32, !llvm.loop !22

32:                                               ; preds = %17
  %33 = icmp ugt i64 %.0.ph, 3
  br i1 %33, label %34, label %.lr.ph

34:                                               ; preds = %32
  %35 = lshr i64 %27, 32
  %36 = trunc nuw i64 %35 to i32
  %37 = tail call noundef i32 @llvm.bswap.i32(i32 %36)
  %38 = getelementptr inbounds nuw i8, ptr %14, i64 32
  %39 = load ptr, ptr %38, align 8, !tbaa !20
  store i32 %37, ptr %39, align 1
  %40 = load ptr, ptr %5, align 8, !tbaa !11
  %41 = getelementptr inbounds nuw i8, ptr %40, i64 32
  %42 = load ptr, ptr %41, align 8, !tbaa !20
  %43 = getelementptr inbounds nuw i8, ptr %42, i64 4
  store ptr %43, ptr %41, align 8, !tbaa !20
  %44 = add i64 %.0.ph, -4
  %45 = shl i64 %27, 32
  %46 = add i64 %30, -32
  br label %.outer.backedge

.outer.backedge:                                  ; preds = %34, %._crit_edge
  %.be = phi ptr [ %.pre, %._crit_edge ], [ %40, %34 ]
  %.044.ph.be = phi i64 [ %51, %._crit_edge ], [ %45, %34 ]
  %.042.ph.be = phi i64 [ %52, %._crit_edge ], [ %46, %34 ]
  %.0.ph.be = phi i64 [ %56, %._crit_edge ], [ %44, %34 ]
  br label %.outer, !llvm.loop !22

.lr.ph:                                           ; preds = %32, %50
  %.170 = phi i64 [ %52, %50 ], [ %30, %32 ]
  %.14569 = phi i64 [ %51, %50 ], [ %27, %32 ]
  %47 = lshr i64 %.14569, 56
  %48 = trunc nuw i64 %47 to i8
  %49 = tail call i32 @nghttp2_bufs_addb(ptr noundef %0, i8 noundef zeroext %48) #7
  %.not56 = icmp eq i32 %49, 0
  br i1 %.not56, label %50, label %.loopexit

50:                                               ; preds = %.lr.ph
  %51 = shl i64 %.14569, 8
  %52 = add i64 %.170, -8
  %53 = icmp ugt i64 %52, 7
  br i1 %53, label %.lr.ph, label %._crit_edge, !llvm.loop !23

._crit_edge:                                      ; preds = %50
  %.pre = load ptr, ptr %5, align 8, !tbaa !11
  %.phi.trans.insert92 = getelementptr inbounds nuw i8, ptr %.pre, i64 32
  %.pre93 = load ptr, ptr %.phi.trans.insert92, align 8, !tbaa !20
  %.phi.trans.insert = getelementptr inbounds nuw i8, ptr %.pre, i64 16
  %.pre91 = load ptr, ptr %.phi.trans.insert, align 8, !tbaa !16
  %54 = ptrtoint ptr %.pre91 to i64
  %55 = ptrtoint ptr %.pre93 to i64
  %56 = sub i64 %54, %55
  br label %.outer.backedge

.lr.ph74:                                         ; preds = %.preheader, %60
  %.273 = phi i64 [ %62, %60 ], [ %.042, %.preheader ]
  %.24672 = phi i64 [ %61, %60 ], [ %.044, %.preheader ]
  %57 = lshr i64 %.24672, 56
  %58 = trunc nuw i64 %57 to i8
  %59 = tail call i32 @nghttp2_bufs_addb(ptr noundef %0, i8 noundef zeroext %58) #7
  %.not55 = icmp eq i32 %59, 0
  br i1 %.not55, label %60, label %.loopexit

60:                                               ; preds = %.lr.ph74
  %61 = shl i64 %.24672, 8
  %62 = add i64 %.273, -8
  %63 = icmp ugt i64 %62, 7
  br i1 %63, label %.lr.ph74, label %._crit_edge75, !llvm.loop !24

._crit_edge75:                                    ; preds = %60, %.preheader
  %.246.lcssa = phi i64 [ %.044, %.preheader ], [ %61, %60 ]
  %.2.lcssa = phi i64 [ %.042, %.preheader ], [ %62, %60 ]
  %.not53 = icmp eq i64 %.2.lcssa, 0
  br i1 %.not53, label %73, label %64

64:                                               ; preds = %._crit_edge75
  %65 = lshr i64 %.246.lcssa, 56
  %66 = trunc nuw nsw i64 %65 to i16
  %67 = trunc nuw i64 %.2.lcssa to i16
  %68 = sub nuw nsw i16 8, %67
  %notmask = shl nsw i16 -1, %68
  %69 = xor i16 %notmask, -1
  %70 = or i16 %69, %66
  %71 = trunc nuw i16 %70 to i8
  %72 = tail call i32 @nghttp2_bufs_addb(ptr noundef %0, i8 noundef zeroext %71) #7
  %.not54 = icmp eq i32 %72, 0
  br i1 %.not54, label %73, label %.loopexit

73:                                               ; preds = %64, %._crit_edge75
  br label %.loopexit

.loopexit:                                        ; preds = %.lr.ph, %.lr.ph74, %64, %73
  %.043 = phi i32 [ 0, %73 ], [ %72, %64 ], [ %59, %.lr.ph74 ], [ %49, %.lr.ph ]
  ret i32 %.043
}